target datalayout = "e-m:e-p270:32:32-p271:32:32-p272:64:64-i64:64-i128:128-f80:128-n8:16:32:64-S128"
target triple = "x86_64-unknown-linux-gnu"

%struct.SphereTriangleDetector = type <{ %struct.btDiscreteCollisionDetectorInterface, ptr, ptr, float, [4 x i8] }>
%struct.btDiscreteCollisionDetectorInterface = type { ptr }

; Function Attrs: mustprogress nounwind uwtable
define linkonce_odr dso_local void @_ZN36btDiscreteCollisionDetectorInterfaceC2Ev(ptr noundef nonnull align 8 dereferenceable(8) %this) unnamed_addr #1 comdat align 2 {
entry:
  %this.addr = alloca ptr, align 8
  store ptr %this, ptr %this.addr, align 8
  %this1 = load ptr, ptr %this.addr, align 8
  store ptr getelementptr inbounds ({ [5 x ptr] }, ptr @_ZTV36btDiscreteCollisionDetectorInterface, i32 0, i32 0, i32 2), ptr %this1, align 8
  ret void
}

; Function Attrs: mustprogress nounwind uwtable
define dso_local void @_ZN22SphereTriangleDetectorC2EP13btSphereShapeP15btTriangleShapef(ptr noundef nonnull align 8 dereferenceable(28) %this, ptr noundef %sphere, ptr noundef %triangle, float noundef %contactBreakingThreshold) unnamed_addr #1 align 2 {
entry:
  %this.addr = alloca ptr, align 8
  %sphere.addr = alloca ptr, align 8
  %triangle.addr = alloca ptr, align 8
  %contactBreakingThreshold.addr = alloca float, align 4
  store ptr %this, ptr %this.addr, align 8
  store ptr %sphere, ptr %sphere.addr, align 8
  store ptr %triangle, ptr %triangle.addr, align 8
  store float %contactBreakingThreshold, ptr %contactBreakingThreshold.addr, align 4
  %this1 = load ptr, ptr %this.addr, align 8
  call void @_ZN36btDiscreteCollisionDetectorInterfaceC2Ev(ptr noundef nonnull align 8 dereferenceable(8) %this1) #9
  store ptr getelementptr inbounds ({ [5 x ptr] }, ptr @_ZTV22SphereTriangleDetector, i32 0, i32 0, i32 2), ptr %this1, align 8
  %m_sphere = getelementptr inbounds %struct.SphereTriangleDetector, ptr %this1, i32 0, i32 1
  %0 = load ptr, ptr %sphere.addr, align 8
  store ptr %0, ptr %m_sphere, align 8
  %m_triangle = getelementptr inbounds %struct.SphereTriangleDetector, ptr %this1, i32 0, i32 2
  %1 = load ptr, ptr %triangle.addr, align 8
  store ptr %1, ptr %m_triangle, align 8
  %m_contactBreakingThreshold = getelementptr inbounds %struct.SphereTriangleDetector, ptr %this1, i32 0, i32 3
  %2 = load float, ptr %contactBreakingThreshold.addr, align 4
  store float %2, ptr %m_contactBreakingThreshold, align 8
  ret void
}