; Function Attrs: mustprogress nofree norecurse nosync nounwind willreturn memory(argmem: write) uwtable
define dso_local void @_ZN22SphereTriangleDetectorC2EP13btSphereShapeP15btTriangleShapef(ptr nocapture noundef nonnull writeonly align 8 dereferenceable(28) %this, ptr noundef %sphere, ptr noundef %triangle, float noundef %contactBreakingThreshold) unnamed_addr #0 align 2 {
entry:
  store ptr getelementptr inbounds ({ [5 x ptr] }, ptr @_ZTV22SphereTriangleDetector, i64 0, i32 0, i64 2), ptr %this, align 8
  %m_sphere = getelementptr inbounds i8, ptr %this, i64 8
  store ptr %sphere, ptr %m_sphere, align 8
  %m_triangle = getelementptr inbounds i8, ptr %this, i64 16
  store ptr %triangle, ptr %m_triangle, align 8
  %m_contactBreakingThreshold = getelementptr inbounds i8, ptr %this, i64 24
  store float %contactBreakingThreshold, ptr %m_contactBreakingThreshold, align 8
  ret void
}